target datalayout = "e-m:e-p270:32:32-p271:32:32-p272:64:64-i64:64-i128:128-f80:128-n8:16:32:64-S128"
target triple = "x86_64-pc-linux-gnu"

@hf_gryphon_ldf_num_encodings = internal global i32 0, align 4
@hf_gryphon_ldf_signal_offset = internal global i32 0, align 4
@hf_gryphon_ldf_signal_length = internal global i32 0, align 4

; Function Attrs: null_pointer_is_valid sspstrong uwtable
define internal i32 @resp_ldf_get_signal_detail(ptr noundef %0, ptr noundef %1, i32 noundef %2, ptr noundef %3) #0 {
  %5 = alloca ptr, align 8
  %6 = alloca ptr, align 8
  %7 = alloca i32, align 4
  %8 = alloca ptr, align 8
  %9 = alloca i16, align 2
  store ptr %0, ptr %5, align 8
  store ptr %1, ptr %6, align 8
  store i32 %2, ptr %7, align 4
  store ptr %3, ptr %8, align 8
  call void @llvm.lifetime.start.p0(i64 2, ptr %9) #7
  %10 = load ptr, ptr %8, align 8
  %11 = load i32, ptr @hf_gryphon_ldf_signal_offset, align 4
  %12 = load ptr, ptr %5, align 8
  %13 = load i32, ptr %7, align 4
  %14 = call ptr @proto_tree_add_item(ptr noundef %10, i32 noundef %11, ptr noundef %12, i32 noundef %13, i32 noundef 1, i32 noundef 0)
  %15 = load i32, ptr %7, align 4
  %16 = add i32 %15, 1
  store i32 %16, ptr %7, align 4
  %17 = load ptr, ptr %8, align 8
  %18 = load i32, ptr @hf_gryphon_ldf_signal_length, align 4
  %19 = load ptr, ptr %5, align 8
  %20 = load i32, ptr %7, align 4
  %21 = call ptr @proto_tree_add_item(ptr noundef %17, i32 noundef %18, ptr noundef %19, i32 noundef %20, i32 noundef 1, i32 noundef 0)
  %22 = load i32, ptr %7, align 4
  %23 = add i32 %22, 1
  store i32 %23, ptr %7, align 4
  %24 = load ptr, ptr %5, align 8
  %25 = load i32, ptr %7, align 4
  %26 = call zeroext i16 @tvb_get_ntohs(ptr noundef %24, i32 noundef %25)
  store i16 %26, ptr %9, align 2
  %27 = load ptr, ptr %8, align 8
  %28 = load i32, ptr @hf_gryphon_ldf_num_encodings, align 4
  %29 = load ptr, ptr %5, align 8
  %30 = load i32, ptr %7, align 4
  %31 = call ptr @proto_tree_add_item(ptr noundef %27, i32 noundef %28, ptr noundef %29, i32 noundef %30, i32 noundef 2, i32 noundef 0)
  %32 = load i32, ptr %7, align 4
  %33 = add i32 %32, 2
  store i32 %33, ptr %7, align 4
  br label %34

34:                                               ; preds = %38, %4
  %35 = load i16, ptr %9, align 2
  %36 = zext i16 %35 to i32
  %37 = icmp sgt i32 %36, 0
  br i1 %37, label %38, label %48

38:                                               ; preds = %34
  %39 = load ptr, ptr %5, align 8
  %40 = load ptr, ptr %6, align 8
  %41 = load i32, ptr %7, align 4
  %42 = load ptr, ptr %8, align 8
  %43 = call i32 @resp_ldf_do_encoding_block(ptr noundef %39, ptr noundef %40, i32 noundef %41, ptr noundef %42)
  store i32 %43, ptr %7, align 4
  %44 = load i16, ptr %9, align 2
  %45 = zext i16 %44 to i32
  %46 = sub i32 %45, 1
  %47 = trunc i32 %46 to i16
  store i16 %47, ptr %9, align 2
  br label %34, !llvm.loop !37

48:                                               ; preds = %34
  %49 = load i32, ptr %7, align 4
  call void @llvm.lifetime.end.p0(i64 2, ptr %9) #7
  ret i32 %49
}