; Function Attrs: null_pointer_is_valid sspstrong uwtable
define internal fastcc i32 @resp_ldf_get_signal_detail(ptr noundef %0, ptr noundef readonly captures(none) %1, ptr noundef %2) unnamed_addr #0 {
  %4 = load i32, ptr @hf_gryphon_ldf_signal_offset, align 4
  %5 = tail call ptr @proto_tree_add_item(ptr noundef %2, i32 noundef %4, ptr noundef %0, i32 noundef 16, i32 noundef 1, i32 noundef 0)
  %6 = load i32, ptr @hf_gryphon_ldf_signal_length, align 4
  %7 = tail call ptr @proto_tree_add_item(ptr noundef %2, i32 noundef %6, ptr noundef %0, i32 noundef 17, i32 noundef 1, i32 noundef 0)
  %8 = tail call zeroext i16 @tvb_get_ntohs(ptr noundef %0, i32 noundef 18)
  %9 = load i32, ptr @hf_gryphon_ldf_num_encodings, align 4
  %10 = tail call ptr @proto_tree_add_item(ptr noundef %2, i32 noundef %9, ptr noundef %0, i32 noundef 18, i32 noundef 2, i32 noundef 0)
  %.not22 = icmp eq i16 %8, 0
  br i1 %.not22, label %._crit_edge, label %.lr.ph

.lr.ph:                                           ; preds = %3
  %11 = getelementptr i8, ptr %1, i64 408
  br label %12

12:                                               ; preds = %.lr.ph, %12
  %.024 = phi i16 [ %8, %.lr.ph ], [ %14, %12 ]
  %.02023 = phi i32 [ 20, %.lr.ph ], [ %13, %12 ]
  %.val = load ptr, ptr %11, align 8
  %13 = tail call fastcc i32 @resp_ldf_do_encoding_block(ptr noundef %0, ptr %.val, i32 noundef %.02023, ptr noundef %2)
  %14 = add i16 %.024, -1
  %.not = icmp eq i16 %14, 0
  br i1 %.not, label %._crit_edge, label %12, !llvm.loop !37

._crit_edge:                                      ; preds = %12, %3
  %.020.lcssa = phi i32 [ 20, %3 ], [ %13, %12 ]
  ret i32 %.020.lcssa
}